; ModuleID = '5/247.c'
source_filename = "5/247.c"
target datalayout = "e-m:e-p270:32:32-p271:32:32-p272:64:64-i64:64-f80:128-n8:16:32:64-S128"
target triple = "x86_64-pc-linux-gnu"

@.str = private unnamed_addr constant [4 x i8] c"%lf\00", align 1
@.str.1 = private unnamed_addr constant [3 x i8] c"%s\00", align 1
@.str.2 = private unnamed_addr constant [6 x i8] c"error\00", align 1
@.str.3 = private unnamed_addr constant [4 x i8] c"yes\00", align 1
@.str.4 = private unnamed_addr constant [3 x i8] c"no\00", align 1

; Function Attrs: noinline nounwind uwtable
define dso_local i32 @main() #0 {
  %1 = alloca i32, align 4
  %2 = alloca double, align 8
  %3 = alloca [500 x i8], align 16
  %4 = alloca [500 x i8], align 16
  %5 = alloca i32, align 4
  %6 = alloca i32, align 4
  %7 = alloca i32, align 4
  %8 = alloca i32, align 4
  %9 = alloca i32, align 4
  %10 = alloca i32, align 4
  %11 = alloca double, align 8
  store i32 0, i32* %1, align 4
  %12 = call i32 (i8*, ...) @__isoc99_scanf(i8* getelementptr inbounds ([4 x i8], [4 x i8]* @.str, i64 0, i64 0), double* %2)
  %13 = getelementptr inbounds [500 x i8], [500 x i8]* %3, i64 0, i64 0
  %14 = call i32 (i8*, ...) @__isoc99_scanf(i8* getelementptr inbounds ([3 x i8], [3 x i8]* @.str.1, i64 0, i64 0), i8* %13)
  %15 = getelementptr inbounds [500 x i8], [500 x i8]* %4, i64 0, i64 0
  %16 = call i32 (i8*, ...) @__isoc99_scanf(i8* getelementptr inbounds ([3 x i8], [3 x i8]* @.str.1, i64 0, i64 0), i8* %15)
  %17 = getelementptr inbounds [500 x i8], [500 x i8]* %3, i64 0, i64 0
  %18 = call i64 @strlen(i8* %17) #3
  %19 = trunc i64 %18 to i32
  store i32 %19, i32* %5, align 4
  %20 = getelementptr inbounds [500 x i8], [500 x i8]* %4, i64 0, i64 0
  %21 = call i64 @strlen(i8* %20) #3
  %22 = trunc i64 %21 to i32
  store i32 %22, i32* %6, align 4
  %23 = load i32, i32* %5, align 4
  %24 = load i32, i32* %6, align 4
  %25 = icmp ne i32 %23, %24
  br i1 %25, label %26, label %28

26:                                               ; preds = %0
  %27 = call i32 (i8*, ...) @printf(i8* getelementptr inbounds ([6 x i8], [6 x i8]* @.str.2, i64 0, i64 0))
  br label %143

28:                                               ; preds = %0
  store i32 0, i32* %7, align 4
  store i32 0, i32* %8, align 4
  br label %29

29:                                               ; preds = %96, %28
  %30 = load i32, i32* %8, align 4
  %31 = load i32, i32* %6, align 4
  %32 = icmp slt i32 %30, %31
  br i1 %32, label %33, label %99

33:                                               ; preds = %29
  %34 = load i32, i32* %8, align 4
  %35 = sext i32 %34 to i64
  %36 = getelementptr inbounds [500 x i8], [500 x i8]* %3, i64 0, i64 %35
  %37 = load i8, i8* %36, align 1
  %38 = sext i8 %37 to i32
  %39 = icmp ne i32 %38, 65
  br i1 %39, label %40, label %64

40:                                               ; preds = %33
  %41 = load i32, i32* %8, align 4
  %42 = sext i32 %41 to i64
  %43 = getelementptr inbounds [500 x i8], [500 x i8]* %3, i64 0, i64 %42
  %44 = load i8, i8* %43, align 1
  %45 = sext i8 %44 to i32
  %46 = icmp ne i32 %45, 84
  br i1 %46, label %47, label %64

47:                                               ; preds = %40
  %48 = load i32, i32* %8, align 4
  %49 = sext i32 %48 to i64
  %50 = getelementptr inbounds [500 x i8], [500 x i8]* %3, i64 0, i64 %49
  %51 = load i8, i8* %50, align 1
  %52 = sext i8 %51 to i32
  %53 = icmp ne i32 %52, 67
  br i1 %53, label %54, label %64

54:                                               ; preds = %47
  %55 = load i32, i32* %8, align 4
  %56 = sext i32 %55 to i64
  %57 = getelementptr inbounds [500 x i8], [500 x i8]* %3, i64 0, i64 %56
  %58 = load i8, i8* %57, align 1
  %59 = sext i8 %58 to i32
  %60 = icmp ne i32 %59, 71
  br i1 %60, label %61, label %64

61:                                               ; preds = %54
  %62 = load i32, i32* %7, align 4
  %63 = add nsw i32 %62, 1
  store i32 %63, i32* %7, align 4
  br label %64

64:                                               ; preds = %61, %54, %47, %40, %33
  %65 = load i32, i32* %8, align 4
  %66 = sext i32 %65 to i64
  %67 = getelementptr inbounds [500 x i8], [500 x i8]* %4, i64 0, i64 %66
  %68 = load i8, i8* %67, align 1
  %69 = sext i8 %68 to i32
  %70 = icmp ne i32 %69, 65
  br i1 %70, label %71, label %95

71:                                               ; preds = %64
  %72 = load i32, i32* %8, align 4
  %73 = sext i32 %72 to i64
  %74 = getelementptr inbounds [500 x i8], [500 x i8]* %4, i64 0, i64 %73
  %75 = load i8, i8* %74, align 1
  %76 = sext i8 %75 to i32
  %77 = icmp ne i32 %76, 84
  br i1 %77, label %78, label %95

78:                                               ; preds = %71
  %79 = load i32, i32* %8, align 4
  %80 = sext i32 %79 to i64
  %81 = getelementptr inbounds [500 x i8], [500 x i8]* %4, i64 0, i64 %80
  %82 = load i8, i8* %81, align 1
  %83 = sext i8 %82 to i32
  %84 = icmp ne i32 %83, 67
  br i1 %84, label %85, label %95

85:                                               ; preds = %78
  %86 = load i32, i32* %8, align 4
  %87 = sext i32 %86 to i64
  %88 = getelementptr inbounds [500 x i8], [500 x i8]* %4, i64 0, i64 %87
  %89 = load i8, i8* %88, align 1
  %90 = sext i8 %89 to i32
  %91 = icmp ne i32 %90, 71
  br i1 %91, label %92, label %95

92:                                               ; preds = %85
  %93 = load i32, i32* %7, align 4
  %94 = add nsw i32 %93, 1
  store i32 %94, i32* %7, align 4
  br label %95

95:                                               ; preds = %92, %85, %78, %71, %64
  br label %96

96:                                               ; preds = %95
  %97 = load i32, i32* %8, align 4
  %98 = add nsw i32 %97, 1
  store i32 %98, i32* %8, align 4
  br label %29

99:                                               ; preds = %29
  %100 = load i32, i32* %7, align 4
  %101 = icmp ne i32 %100, 0
  br i1 %101, label %102, label %104

102:                                              ; preds = %99
  %103 = call i32 (i8*, ...) @printf(i8* getelementptr inbounds ([6 x i8], [6 x i8]* @.str.2, i64 0, i64 0))
  br label %142

104:                                              ; preds = %99
  store i32 0, i32* %9, align 4
  store i32 0, i32* %10, align 4
  br label %105

105:                                              ; preds = %125, %104
  %106 = load i32, i32* %10, align 4
  %107 = load i32, i32* %6, align 4
  %108 = icmp slt i32 %106, %107
  br i1 %108, label %109, label %128

109:                                              ; preds = %105
  %110 = load i32, i32* %10, align 4
  %111 = sext i32 %110 to i64
  %112 = getelementptr inbounds [500 x i8], [500 x i8]* %3, i64 0, i64 %111
  %113 = load i8, i8* %112, align 1
  %114 = sext i8 %113 to i32
  %115 = load i32, i32* %10, align 4
  %116 = sext i32 %115 to i64
  %117 = getelementptr inbounds [500 x i8], [500 x i8]* %4, i64 0, i64 %116
  %118 = load i8, i8* %117, align 1
  %119 = sext i8 %118 to i32
  %120 = icmp eq i32 %114, %119
  br i1 %120, label %121, label %124

121:                                              ; preds = %109
  %122 = load i32, i32* %9, align 4
  %123 = add nsw i32 %122, 1
  store i32 %123, i32* %9, align 4
  br label %124

124:                                              ; preds = %121, %109
  br label %125

125:                                              ; preds = %124
  %126 = load i32, i32* %10, align 4
  %127 = add nsw i32 %126, 1
  store i32 %127, i32* %10, align 4
  br label %105

128:                                              ; preds = %105
  %129 = load i32, i32* %9, align 4
  %130 = sitofp i32 %129 to double
  %131 = load i32, i32* %6, align 4
  %132 = sitofp i32 %131 to double
  %133 = fdiv double %130, %132
  store double %133, double* %11, align 8
  %134 = load double, double* %11, align 8
  %135 = load double, double* %2, align 8
  %136 = fcmp ogt double %134, %135
  br i1 %136, label %137, label %139

137:                                              ; preds = %128
  %138 = call i32 (i8*, ...) @printf(i8* getelementptr inbounds ([4 x i8], [4 x i8]* @.str.3, i64 0, i64 0))
  br label %141

139:                                              ; preds = %128
  %140 = call i32 (i8*, ...) @printf(i8* getelementptr inbounds ([3 x i8], [3 x i8]* @.str.4, i64 0, i64 0))
  br label %141

141:                                              ; preds = %139, %137
  br label %142

142:                                              ; preds = %141, %102
  br label %143

143:                                              ; preds = %142, %26
  ret i32 0
}

declare dso_local i32 @__isoc99_scanf(i8*, ...) #1

; Function Attrs: nounwind readonly
declare dso_local i64 @strlen(i8*) #2

declare dso_local i32 @printf(i8*, ...) #1


!llvm.module.flags = !{!0}
!llvm.ident = !{!1}

!0 = !{i32 1, !"wchar_size", i32 4}
!1 = !{!"clang version 10.0.0-4ubuntu1 "}
